; ModuleID = '64/3315.c'
source_filename = "64/3315.c"
target datalayout = "e-m:e-p270:32:32-p271:32:32-p272:64:64-i64:64-f80:128-n8:16:32:64-S128"
target triple = "x86_64-pc-linux-gnu"

@.str = private unnamed_addr constant [3 x i8] c"%d\00", align 1
@.str.1 = private unnamed_addr constant [7 x i8] c"%d%d%d\00", align 1
@.str.2 = private unnamed_addr constant [29 x i8] c"(%d,%d,%d)-(%d,%d,%d)=%.2lf\0A\00", align 1

; Function Attrs: noinline nounwind uwtable
define dso_local i32 @main() #0 {
  %1 = alloca i32, align 4
  %2 = alloca i32, align 4
  %3 = alloca i32, align 4
  %4 = alloca i32, align 4
  %5 = alloca i32, align 4
  %6 = alloca i32, align 4
  %7 = alloca [11 x i32], align 16
  %8 = alloca [11 x i32], align 16
  %9 = alloca [11 x i32], align 16
  %10 = alloca [51 x i32], align 16
  %11 = alloca i32, align 4
  %12 = alloca [51 x i32], align 16
  %13 = alloca [51 x i32], align 16
  %14 = alloca [51 x double], align 16
  %15 = alloca i32, align 4
  %16 = alloca i32, align 4
  %17 = alloca double, align 8
  store i32 0, i32* %1, align 4
  %18 = call i32 (i8*, ...) @__isoc99_scanf(i8* getelementptr inbounds ([3 x i8], [3 x i8]* @.str, i64 0, i64 0), i32* %2)
  store i32 0, i32* %5, align 4
  br label %19

19:                                               ; preds = %34, %0
  %20 = load i32, i32* %5, align 4
  %21 = load i32, i32* %2, align 4
  %22 = icmp slt i32 %20, %21
  br i1 %22, label %23, label %37

23:                                               ; preds = %19
  %24 = load i32, i32* %5, align 4
  %25 = sext i32 %24 to i64
  %26 = getelementptr inbounds [11 x i32], [11 x i32]* %7, i64 0, i64 %25
  %27 = load i32, i32* %5, align 4
  %28 = sext i32 %27 to i64
  %29 = getelementptr inbounds [11 x i32], [11 x i32]* %8, i64 0, i64 %28
  %30 = load i32, i32* %5, align 4
  %31 = sext i32 %30 to i64
  %32 = getelementptr inbounds [11 x i32], [11 x i32]* %9, i64 0, i64 %31
  %33 = call i32 (i8*, ...) @__isoc99_scanf(i8* getelementptr inbounds ([7 x i8], [7 x i8]* @.str.1, i64 0, i64 0), i32* %26, i32* %29, i32* %32)
  br label %34

34:                                               ; preds = %23
  %35 = load i32, i32* %5, align 4
  %36 = add nsw i32 %35, 1
  store i32 %36, i32* %5, align 4
  br label %19

37:                                               ; preds = %19
  store i32 0, i32* %5, align 4
  store i32 0, i32* %6, align 4
  br label %38

38:                                               ; preds = %136, %37
  %39 = load i32, i32* %6, align 4
  %40 = load i32, i32* %2, align 4
  %41 = sub nsw i32 %40, 1
  %42 = icmp slt i32 %39, %41
  br i1 %42, label %43, label %139

43:                                               ; preds = %38
  %44 = load i32, i32* %6, align 4
  %45 = add nsw i32 %44, 1
  store i32 %45, i32* %11, align 4
  br label %46

46:                                               ; preds = %132, %43
  %47 = load i32, i32* %11, align 4
  %48 = load i32, i32* %2, align 4
  %49 = icmp slt i32 %47, %48
  br i1 %49, label %50, label %135

50:                                               ; preds = %46
  %51 = load i32, i32* %6, align 4
  %52 = sext i32 %51 to i64
  %53 = getelementptr inbounds [11 x i32], [11 x i32]* %7, i64 0, i64 %52
  %54 = load i32, i32* %53, align 4
  %55 = load i32, i32* %11, align 4
  %56 = sext i32 %55 to i64
  %57 = getelementptr inbounds [11 x i32], [11 x i32]* %7, i64 0, i64 %56
  %58 = load i32, i32* %57, align 4
  %59 = sub nsw i32 %54, %58
  %60 = load i32, i32* %6, align 4
  %61 = sext i32 %60 to i64
  %62 = getelementptr inbounds [11 x i32], [11 x i32]* %7, i64 0, i64 %61
  %63 = load i32, i32* %62, align 4
  %64 = load i32, i32* %11, align 4
  %65 = sext i32 %64 to i64
  %66 = getelementptr inbounds [11 x i32], [11 x i32]* %7, i64 0, i64 %65
  %67 = load i32, i32* %66, align 4
  %68 = sub nsw i32 %63, %67
  %69 = mul nsw i32 %59, %68
  %70 = load i32, i32* %6, align 4
  %71 = sext i32 %70 to i64
  %72 = getelementptr inbounds [11 x i32], [11 x i32]* %8, i64 0, i64 %71
  %73 = load i32, i32* %72, align 4
  %74 = load i32, i32* %11, align 4
  %75 = sext i32 %74 to i64
  %76 = getelementptr inbounds [11 x i32], [11 x i32]* %8, i64 0, i64 %75
  %77 = load i32, i32* %76, align 4
  %78 = sub nsw i32 %73, %77
  %79 = load i32, i32* %6, align 4
  %80 = sext i32 %79 to i64
  %81 = getelementptr inbounds [11 x i32], [11 x i32]* %8, i64 0, i64 %80
  %82 = load i32, i32* %81, align 4
  %83 = load i32, i32* %11, align 4
  %84 = sext i32 %83 to i64
  %85 = getelementptr inbounds [11 x i32], [11 x i32]* %8, i64 0, i64 %84
  %86 = load i32, i32* %85, align 4
  %87 = sub nsw i32 %82, %86
  %88 = mul nsw i32 %78, %87
  %89 = add nsw i32 %69, %88
  %90 = load i32, i32* %6, align 4
  %91 = sext i32 %90 to i64
  %92 = getelementptr inbounds [11 x i32], [11 x i32]* %9, i64 0, i64 %91
  %93 = load i32, i32* %92, align 4
  %94 = load i32, i32* %11, align 4
  %95 = sext i32 %94 to i64
  %96 = getelementptr inbounds [11 x i32], [11 x i32]* %9, i64 0, i64 %95
  %97 = load i32, i32* %96, align 4
  %98 = sub nsw i32 %93, %97
  %99 = load i32, i32* %6, align 4
  %100 = sext i32 %99 to i64
  %101 = getelementptr inbounds [11 x i32], [11 x i32]* %9, i64 0, i64 %100
  %102 = load i32, i32* %101, align 4
  %103 = load i32, i32* %11, align 4
  %104 = sext i32 %103 to i64
  %105 = getelementptr inbounds [11 x i32], [11 x i32]* %9, i64 0, i64 %104
  %106 = load i32, i32* %105, align 4
  %107 = sub nsw i32 %102, %106
  %108 = mul nsw i32 %98, %107
  %109 = add nsw i32 %89, %108
  %110 = load i32, i32* %5, align 4
  %111 = sext i32 %110 to i64
  %112 = getelementptr inbounds [51 x i32], [51 x i32]* %10, i64 0, i64 %111
  store i32 %109, i32* %112, align 4
  %113 = load i32, i32* %5, align 4
  %114 = sext i32 %113 to i64
  %115 = getelementptr inbounds [51 x i32], [51 x i32]* %10, i64 0, i64 %114
  %116 = load i32, i32* %115, align 4
  %117 = sitofp i32 %116 to double
  %118 = call double @sqrt(double %117) #3
  %119 = load i32, i32* %5, align 4
  %120 = sext i32 %119 to i64
  %121 = getelementptr inbounds [51 x double], [51 x double]* %14, i64 0, i64 %120
  store double %118, double* %121, align 8
  %122 = load i32, i32* %6, align 4
  %123 = load i32, i32* %5, align 4
  %124 = sext i32 %123 to i64
  %125 = getelementptr inbounds [51 x i32], [51 x i32]* %12, i64 0, i64 %124
  store i32 %122, i32* %125, align 4
  %126 = load i32, i32* %11, align 4
  %127 = load i32, i32* %5, align 4
  %128 = sext i32 %127 to i64
  %129 = getelementptr inbounds [51 x i32], [51 x i32]* %13, i64 0, i64 %128
  store i32 %126, i32* %129, align 4
  %130 = load i32, i32* %5, align 4
  %131 = add nsw i32 %130, 1
  store i32 %131, i32* %5, align 4
  br label %132

132:                                              ; preds = %50
  %133 = load i32, i32* %11, align 4
  %134 = add nsw i32 %133, 1
  store i32 %134, i32* %11, align 4
  br label %46

135:                                              ; preds = %46
  br label %136

136:                                              ; preds = %135
  %137 = load i32, i32* %6, align 4
  %138 = add nsw i32 %137, 1
  store i32 %138, i32* %6, align 4
  br label %38

139:                                              ; preds = %38
  store i32 1, i32* %11, align 4
  br label %140

140:                                              ; preds = %219, %139
  %141 = load i32, i32* %11, align 4
  %142 = load i32, i32* %5, align 4
  %143 = icmp sle i32 %141, %142
  br i1 %143, label %144, label %222

144:                                              ; preds = %140
  store i32 0, i32* %6, align 4
  br label %145

145:                                              ; preds = %215, %144
  %146 = load i32, i32* %6, align 4
  %147 = load i32, i32* %5, align 4
  %148 = load i32, i32* %11, align 4
  %149 = sub nsw i32 %147, %148
  %150 = icmp slt i32 %146, %149
  br i1 %150, label %151, label %218

151:                                              ; preds = %145
  %152 = load i32, i32* %6, align 4
  %153 = sext i32 %152 to i64
  %154 = getelementptr inbounds [51 x double], [51 x double]* %14, i64 0, i64 %153
  %155 = load double, double* %154, align 8
  %156 = load i32, i32* %6, align 4
  %157 = add nsw i32 %156, 1
  %158 = sext i32 %157 to i64
  %159 = getelementptr inbounds [51 x double], [51 x double]* %14, i64 0, i64 %158
  %160 = load double, double* %159, align 8
  %161 = fcmp olt double %155, %160
  br i1 %161, label %162, label %214

162:                                              ; preds = %151
  %163 = load i32, i32* %6, align 4
  %164 = sext i32 %163 to i64
  %165 = getelementptr inbounds [51 x double], [51 x double]* %14, i64 0, i64 %164
  %166 = load double, double* %165, align 8
  store double %166, double* %17, align 8
  %167 = load i32, i32* %6, align 4
  %168 = add nsw i32 %167, 1
  %169 = sext i32 %168 to i64
  %170 = getelementptr inbounds [51 x double], [51 x double]* %14, i64 0, i64 %169
  %171 = load double, double* %170, align 8
  %172 = load i32, i32* %6, align 4
  %173 = sext i32 %172 to i64
  %174 = getelementptr inbounds [51 x double], [51 x double]* %14, i64 0, i64 %173
  store double %171, double* %174, align 8
  %175 = load double, double* %17, align 8
  %176 = load i32, i32* %6, align 4
  %177 = add nsw i32 %176, 1
  %178 = sext i32 %177 to i64
  %179 = getelementptr inbounds [51 x double], [51 x double]* %14, i64 0, i64 %178
  store double %175, double* %179, align 8
  %180 = load i32, i32* %6, align 4
  %181 = sext i32 %180 to i64
  %182 = getelementptr inbounds [51 x i32], [51 x i32]* %12, i64 0, i64 %181
  %183 = load i32, i32* %182, align 4
  store i32 %183, i32* %15, align 4
  %184 = load i32, i32* %6, align 4
  %185 = add nsw i32 %184, 1
  %186 = sext i32 %185 to i64
  %187 = getelementptr inbounds [51 x i32], [51 x i32]* %12, i64 0, i64 %186
  %188 = load i32, i32* %187, align 4
  %189 = load i32, i32* %6, align 4
  %190 = sext i32 %189 to i64
  %191 = getelementptr inbounds [51 x i32], [51 x i32]* %12, i64 0, i64 %190
  store i32 %188, i32* %191, align 4
  %192 = load i32, i32* %15, align 4
  %193 = load i32, i32* %6, align 4
  %194 = add nsw i32 %193, 1
  %195 = sext i32 %194 to i64
  %196 = getelementptr inbounds [51 x i32], [51 x i32]* %12, i64 0, i64 %195
  store i32 %192, i32* %196, align 4
  %197 = load i32, i32* %6, align 4
  %198 = sext i32 %197 to i64
  %199 = getelementptr inbounds [51 x i32], [51 x i32]* %13, i64 0, i64 %198
  %200 = load i32, i32* %199, align 4
  store i32 %200, i32* %16, align 4
  %201 = load i32, i32* %6, align 4
  %202 = add nsw i32 %201, 1
  %203 = sext i32 %202 to i64
  %204 = getelementptr inbounds [51 x i32], [51 x i32]* %13, i64 0, i64 %203
  %205 = load i32, i32* %204, align 4
  %206 = load i32, i32* %6, align 4
  %207 = sext i32 %206 to i64
  %208 = getelementptr inbounds [51 x i32], [51 x i32]* %13, i64 0, i64 %207
  store i32 %205, i32* %208, align 4
  %209 = load i32, i32* %16, align 4
  %210 = load i32, i32* %6, align 4
  %211 = add nsw i32 %210, 1
  %212 = sext i32 %211 to i64
  %213 = getelementptr inbounds [51 x i32], [51 x i32]* %13, i64 0, i64 %212
  store i32 %209, i32* %213, align 4
  br label %214

214:                                              ; preds = %162, %151
  br label %215

215:                                              ; preds = %214
  %216 = load i32, i32* %6, align 4
  %217 = add nsw i32 %216, 1
  store i32 %217, i32* %6, align 4
  br label %145

218:                                              ; preds = %145
  br label %219

219:                                              ; preds = %218
  %220 = load i32, i32* %11, align 4
  %221 = add nsw i32 %220, 1
  store i32 %221, i32* %11, align 4
  br label %140

222:                                              ; preds = %140
  store i32 0, i32* %6, align 4
  br label %223

223:                                              ; preds = %265, %222
  %224 = load i32, i32* %6, align 4
  %225 = load i32, i32* %5, align 4
  %226 = icmp slt i32 %224, %225
  br i1 %226, label %227, label %268

227:                                              ; preds = %223
  %228 = load i32, i32* %6, align 4
  %229 = sext i32 %228 to i64
  %230 = getelementptr inbounds [51 x i32], [51 x i32]* %12, i64 0, i64 %229
  %231 = load i32, i32* %230, align 4
  store i32 %231, i32* %3, align 4
  %232 = load i32, i32* %6, align 4
  %233 = sext i32 %232 to i64
  %234 = getelementptr inbounds [51 x i32], [51 x i32]* %13, i64 0, i64 %233
  %235 = load i32, i32* %234, align 4
  store i32 %235, i32* %4, align 4
  %236 = load i32, i32* %3, align 4
  %237 = sext i32 %236 to i64
  %238 = getelementptr inbounds [11 x i32], [11 x i32]* %7, i64 0, i64 %237
  %239 = load i32, i32* %238, align 4
  %240 = load i32, i32* %3, align 4
  %241 = sext i32 %240 to i64
  %242 = getelementptr inbounds [11 x i32], [11 x i32]* %8, i64 0, i64 %241
  %243 = load i32, i32* %242, align 4
  %244 = load i32, i32* %3, align 4
  %245 = sext i32 %244 to i64
  %246 = getelementptr inbounds [11 x i32], [11 x i32]* %9, i64 0, i64 %245
  %247 = load i32, i32* %246, align 4
  %248 = load i32, i32* %4, align 4
  %249 = sext i32 %248 to i64
  %250 = getelementptr inbounds [11 x i32], [11 x i32]* %7, i64 0, i64 %249
  %251 = load i32, i32* %250, align 4
  %252 = load i32, i32* %4, align 4
  %253 = sext i32 %252 to i64
  %254 = getelementptr inbounds [11 x i32], [11 x i32]* %8, i64 0, i64 %253
  %255 = load i32, i32* %254, align 4
  %256 = load i32, i32* %4, align 4
  %257 = sext i32 %256 to i64
  %258 = getelementptr inbounds [11 x i32], [11 x i32]* %9, i64 0, i64 %257
  %259 = load i32, i32* %258, align 4
  %260 = load i32, i32* %6, align 4
  %261 = sext i32 %260 to i64
  %262 = getelementptr inbounds [51 x double], [51 x double]* %14, i64 0, i64 %261
  %263 = load double, double* %262, align 8
  %264 = call i32 (i8*, ...) @printf(i8* getelementptr inbounds ([29 x i8], [29 x i8]* @.str.2, i64 0, i64 0), i32 %239, i32 %243, i32 %247, i32 %251, i32 %255, i32 %259, double %263)
  br label %265

265:                                              ; preds = %227
  %266 = load i32, i32* %6, align 4
  %267 = add nsw i32 %266, 1
  store i32 %267, i32* %6, align 4
  br label %223

268:                                              ; preds = %223
  ret i32 0
}

declare dso_local i32 @__isoc99_scanf(i8*, ...) #1

; Function Attrs: nounwind
declare dso_local double @sqrt(double) #2

declare dso_local i32 @printf(i8*, ...) #1


!llvm.module.flags = !{!0}
!llvm.ident = !{!1}

!0 = !{i32 1, !"wchar_size", i32 4}
!1 = !{!"clang version 10.0.0-4ubuntu1 "}
